target datalayout = "e-m:e-p270:32:32-p271:32:32-p272:64:64-i64:64-i128:128-f80:128-n8:16:32:64-S128"
target triple = "x86_64-pc-linux-gnu"

%struct._zend_executor_globals = type { %struct._zval_struct, %struct._zval_struct, [32 x ptr], ptr, ptr, %struct._zend_array, %struct._zend_array, ptr, i32, i32, ptr, ptr, ptr, ptr, ptr, ptr, i64, ptr, ptr, i32, i32, i64, i32, i32, i32, i8, i8, %struct.zend_atomic_bool_s, %struct.zend_atomic_bool_s, ptr, i64, ptr, ptr, %struct._zend_array, %struct._zend_array, i32, i8, %struct._zval_struct, %struct._zval_struct, %struct._zend_stack, %struct._zend_stack, %struct._zend_stack, ptr, i32, i32, i64, ptr, ptr, ptr, %struct._zend_objects_store, ptr, ptr, ptr, [3 x %struct._zend_op], ptr, i8, i8, i64, i32, i32, ptr, [16 x %struct._HashTableIterator], ptr, %union._zend_function, %struct._zend_op, %struct._zend_array, i64, %struct.zend_get_gc_buffer, ptr, ptr, ptr, i64, i8, i32, ptr, ptr, i64, %struct._zend_call_stack, i64, i64, [6 x ptr] }
%struct.zend_atomic_bool_s = type { i8 }
%struct._zval_struct = type { %union._zend_value, %union.anon, %union.anon.2 }
%union._zend_value = type { i64 }
%union.anon = type { i32 }
%union.anon.2 = type { i32 }
%struct._zend_stack = type { i32, i32, i32, ptr }
%struct._zend_objects_store = type { ptr, i32, i32, i32 }
%struct._HashTableIterator = type { ptr, i32, i32 }
%union._zend_function = type { %struct._zend_op_array }
%struct._zend_op_array = type { i8, [3 x i8], i32, ptr, ptr, ptr, i32, i32, ptr, ptr, ptr, ptr, i32, i32, i32, i32, ptr, ptr, ptr, ptr, ptr, i32, i32, ptr, ptr, ptr, i32, i32, i32, i32, ptr, ptr, [6 x ptr] }
%struct._zend_op = type { ptr, %union._znode_op, %union._znode_op, %union._znode_op, i32, i32, i8, i8, i8, i8 }
%union._znode_op = type { i32 }
%struct._zend_array = type { %struct._zend_refcounted_h, %union.anon.4, i32, %union.anon.6, i32, i32, i32, i32, i64, ptr }
%struct._zend_refcounted_h = type { i32, %union.anon.3 }
%union.anon.3 = type { i32 }
%union.anon.4 = type { i32 }
%union.anon.6 = type { ptr }
%struct.zend_get_gc_buffer = type { ptr, ptr, ptr }
%struct._zend_call_stack = type { ptr, i64 }
%struct._zend_execute_data = type { ptr, ptr, ptr, ptr, %struct._zval_struct, ptr, ptr, ptr, ptr }

@.str = private unnamed_addr constant [6 x i8] c"s|s!s\00", align 1
@executor_globals = external global %struct._zend_executor_globals, align 8
@xmlFree = external global ptr, align 8

; Function Attrs: nounwind uwtable
define internal ptr @php_dom_obj_from_obj(ptr noundef %0) #0 {
  %2 = alloca ptr, align 8
  store ptr %0, ptr %2, align 8
  %3 = load ptr, ptr %2, align 8
  %4 = getelementptr inbounds i8, ptr %3, i64 -24
  ret ptr %4
}

; Function Attrs: nounwind uwtable
define hidden void @zim_DOMElement___construct(ptr noundef %0, ptr noundef %1) #0 {
  %3 = alloca ptr, align 8
  %4 = alloca ptr, align 8
  %5 = alloca ptr, align 8
  %6 = alloca ptr, align 8
  %7 = alloca ptr, align 8
  %8 = alloca ptr, align 8
  %9 = alloca ptr, align 8
  %10 = alloca ptr, align 8
  %11 = alloca ptr, align 8
  %12 = alloca ptr, align 8
  %13 = alloca i32, align 4
  %14 = alloca i64, align 8
  %15 = alloca i64, align 8
  %16 = alloca i64, align 8
  %17 = alloca i32, align 4
  %18 = alloca ptr, align 8
  store ptr %0, ptr %3, align 8
  store ptr %1, ptr %4, align 8
  store ptr null, ptr %5, align 8
  store ptr null, ptr %6, align 8
  store ptr null, ptr %9, align 8
  store ptr null, ptr %10, align 8
  store ptr null, ptr %11, align 8
  store ptr null, ptr %12, align 8
  store i32 0, ptr %13, align 4
  store i64 0, ptr %15, align 8
  store i64 0, ptr %16, align 8
  store ptr null, ptr %18, align 8
  %19 = load ptr, ptr %3, align 8
  %20 = getelementptr inbounds %struct._zend_execute_data, ptr %19, i32 0, i32 4
  %21 = getelementptr inbounds %struct._zval_struct, ptr %20, i32 0, i32 2
  %22 = load i32, ptr %21, align 4
  %23 = call i32 (i32, ptr, ...) @zend_parse_parameters(i32 noundef %22, ptr noundef @.str, ptr noundef %8, ptr noundef %14, ptr noundef %9, ptr noundef %15, ptr noundef %10, ptr noundef %16)
  %24 = icmp eq i32 %23, -1
  br i1 %24, label %25, label %30

25:                                               ; preds = %2
  br label %26

26:                                               ; preds = %25
  %27 = load ptr, ptr getelementptr inbounds (%struct._zend_executor_globals, ptr @executor_globals, i32 0, i32 50), align 8
  %28 = icmp ne ptr %27, null
  call void @llvm.assume(i1 %28)
  br label %141

29:                                               ; No predecessors!
  br label %30

30:                                               ; preds = %29, %2
  %31 = load ptr, ptr %8, align 8
  %32 = call i32 @xmlValidateName(ptr noundef %31, i32 noundef 0)
  store i32 %32, ptr %17, align 4
  %33 = load i32, ptr %17, align 4
  %34 = icmp ne i32 %33, 0
  br i1 %34, label %35, label %40

35:                                               ; preds = %30
  call void @php_dom_throw_error(i32 noundef 5, i32 noundef 1)
  br label %36

36:                                               ; preds = %35
  %37 = load ptr, ptr getelementptr inbounds (%struct._zend_executor_globals, ptr @executor_globals, i32 0, i32 50), align 8
  %38 = icmp ne ptr %37, null
  call void @llvm.assume(i1 %38)
  br label %141

39:                                               ; No predecessors!
  br label %40

40:                                               ; preds = %39, %30
  %41 = load i64, ptr %16, align 8
  %42 = icmp ugt i64 %41, 0
  br i1 %42, label %43, label %91

43:                                               ; preds = %40
  %44 = load ptr, ptr %8, align 8
  %45 = load i64, ptr %16, align 8
  %46 = trunc i64 %45 to i32
  %47 = load i64, ptr %14, align 8
  %48 = trunc i64 %47 to i32
  %49 = call i32 @dom_check_qname(ptr noundef %44, ptr noundef %11, ptr noundef %12, i32 noundef %46, i32 noundef %48)
  store i32 %49, ptr %13, align 4
  %50 = load i32, ptr %13, align 4
  %51 = icmp eq i32 %50, 0
  br i1 %51, label %52, label %68

52:                                               ; preds = %43
  %53 = load ptr, ptr %11, align 8
  %54 = call ptr @xmlNewNode(ptr noundef null, ptr noundef %53)
  store ptr %54, ptr %5, align 8
  %55 = load ptr, ptr %5, align 8
  %56 = icmp ne ptr %55, null
  br i1 %56, label %57, label %67

57:                                               ; preds = %52
  %58 = load ptr, ptr %10, align 8
  %59 = icmp ne ptr %58, null
  br i1 %59, label %60, label %67

60:                                               ; preds = %57
  %61 = load ptr, ptr %5, align 8
  %62 = load ptr, ptr %10, align 8
  %63 = load ptr, ptr %12, align 8
  %64 = call ptr @dom_get_ns(ptr noundef %61, ptr noundef %62, ptr noundef %13, ptr noundef %63)
  store ptr %64, ptr %18, align 8
  %65 = load ptr, ptr %5, align 8
  %66 = load ptr, ptr %18, align 8
  call void @xmlSetNs(ptr noundef %65, ptr noundef %66)
  br label %67

67:                                               ; preds = %60, %57, %52
  br label %68

68:                                               ; preds = %67, %43
  %69 = load ptr, ptr @xmlFree, align 8
  %70 = load ptr, ptr %11, align 8
  call void %69(ptr noundef %70)
  %71 = load ptr, ptr %12, align 8
  %72 = icmp ne ptr %71, null
  br i1 %72, label %73, label %76

73:                                               ; preds = %68
  %74 = load ptr, ptr @xmlFree, align 8
  %75 = load ptr, ptr %12, align 8
  call void %74(ptr noundef %75)
  br label %76

76:                                               ; preds = %73, %68
  %77 = load i32, ptr %13, align 4
  %78 = icmp ne i32 %77, 0
  br i1 %78, label %79, label %90

79:                                               ; preds = %76
  %80 = load ptr, ptr %5, align 8
  %81 = icmp ne ptr %80, null
  br i1 %81, label %82, label %84

82:                                               ; preds = %79
  %83 = load ptr, ptr %5, align 8
  call void @xmlFreeNode(ptr noundef %83)
  br label %84

84:                                               ; preds = %82, %79
  %85 = load i32, ptr %13, align 4
  call void @php_dom_throw_error(i32 noundef %85, i32 noundef 1)
  br label %86

86:                                               ; preds = %84
  %87 = load ptr, ptr getelementptr inbounds (%struct._zend_executor_globals, ptr @executor_globals, i32 0, i32 50), align 8
  %88 = icmp ne ptr %87, null
  call void @llvm.assume(i1 %88)
  br label %141

89:                                               ; No predecessors!
  br label %90

90:                                               ; preds = %89, %76
  br label %108

91:                                               ; preds = %40
  %92 = load ptr, ptr %8, align 8
  %93 = call ptr @xmlSplitQName2(ptr noundef %92, ptr noundef %12)
  store ptr %93, ptr %11, align 8
  %94 = load ptr, ptr %12, align 8
  %95 = icmp ne ptr %94, null
  br i1 %95, label %96, label %105

96:                                               ; preds = %91
  %97 = load ptr, ptr @xmlFree, align 8
  %98 = load ptr, ptr %11, align 8
  call void %97(ptr noundef %98)
  %99 = load ptr, ptr @xmlFree, align 8
  %100 = load ptr, ptr %12, align 8
  call void %99(ptr noundef %100)
  call void @php_dom_throw_error(i32 noundef 14, i32 noundef 1)
  br label %101

101:                                              ; preds = %96
  %102 = load ptr, ptr getelementptr inbounds (%struct._zend_executor_globals, ptr @executor_globals, i32 0, i32 50), align 8
  %103 = icmp ne ptr %102, null
  call void @llvm.assume(i1 %103)
  br label %141

104:                                              ; No predecessors!
  br label %105

105:                                              ; preds = %104, %91
  %106 = load ptr, ptr %8, align 8
  %107 = call ptr @xmlNewNode(ptr noundef null, ptr noundef %106)
  store ptr %107, ptr %5, align 8
  br label %108

108:                                              ; preds = %105, %90
  %109 = load ptr, ptr %5, align 8
  %110 = icmp ne ptr %109, null
  br i1 %110, label %116, label %111

111:                                              ; preds = %108
  call void @php_dom_throw_error(i32 noundef 11, i32 noundef 1)
  br label %112

112:                                              ; preds = %111
  %113 = load ptr, ptr getelementptr inbounds (%struct._zend_executor_globals, ptr @executor_globals, i32 0, i32 50), align 8
  %114 = icmp ne ptr %113, null
  call void @llvm.assume(i1 %114)
  br label %141

115:                                              ; No predecessors!
  br label %116

116:                                              ; preds = %115, %108
  %117 = load i64, ptr %15, align 8
  %118 = icmp ugt i64 %117, 0
  br i1 %118, label %119, label %124

119:                                              ; preds = %116
  %120 = load ptr, ptr %5, align 8
  %121 = load ptr, ptr %9, align 8
  %122 = load i64, ptr %15, align 8
  %123 = trunc i64 %122 to i32
  call void @xmlNodeSetContentLen(ptr noundef %120, ptr noundef %121, i32 noundef %123)
  br label %124

124:                                              ; preds = %119, %116
  %125 = load ptr, ptr %3, align 8
  %126 = getelementptr inbounds %struct._zend_execute_data, ptr %125, i32 0, i32 4
  %127 = getelementptr inbounds %struct._zval_struct, ptr %126, i32 0, i32 0
  %128 = load ptr, ptr %127, align 8
  %129 = call ptr @php_dom_obj_from_obj(ptr noundef %128)
  store ptr %129, ptr %7, align 8
  %130 = load ptr, ptr %7, align 8
  %131 = call ptr @dom_object_get_node(ptr noundef %130)
  store ptr %131, ptr %6, align 8
  %132 = load ptr, ptr %6, align 8
  %133 = icmp ne ptr %132, null
  br i1 %133, label %134, label %136

134:                                              ; preds = %124
  %135 = load ptr, ptr %7, align 8
  call void @php_libxml_node_decrement_resource(ptr noundef %135)
  br label %136

136:                                              ; preds = %134, %124
  %137 = load ptr, ptr %7, align 8
  %138 = load ptr, ptr %5, align 8
  %139 = load ptr, ptr %7, align 8
  %140 = call i32 @php_libxml_increment_node_ptr(ptr noundef %137, ptr noundef %138, ptr noundef %139)
  br label %141

141:                                              ; preds = %136, %112, %101, %86, %36, %26
  ret void
}