; Function Attrs: nounwind uwtable
define hidden void @zim_DOMElement___construct(ptr nocapture noundef readonly %0, ptr nocapture noundef readnone %1) local_unnamed_addr #0 {
  %3 = alloca ptr, align 8
  %4 = alloca ptr, align 8
  %5 = alloca ptr, align 8
  %6 = alloca ptr, align 8
  %7 = alloca ptr, align 8
  %8 = alloca i32, align 4
  %9 = alloca i64, align 8
  %10 = alloca i64, align 8
  %11 = alloca i64, align 8
  store ptr null, ptr %4, align 8
  store ptr null, ptr %5, align 8
  store ptr null, ptr %6, align 8
  store ptr null, ptr %7, align 8
  store i32 0, ptr %8, align 4
  store i64 0, ptr %10, align 8
  store i64 0, ptr %11, align 8
  %12 = getelementptr inbounds i8, ptr %0, i64 32
  %13 = getelementptr inbounds i8, ptr %0, i64 44
  %14 = load i32, ptr %13, align 4
  %15 = call i32 (i32, ptr, ...) @zend_parse_parameters(i32 noundef %14, ptr noundef nonnull @.str, ptr noundef nonnull %3, ptr noundef nonnull %9, ptr noundef nonnull %4, ptr noundef nonnull %10, ptr noundef nonnull %5, ptr noundef nonnull %11) #8
  %16 = icmp eq i32 %15, -1
  br i1 %16, label %17, label %20

17:                                               ; preds = %2
  %18 = load ptr, ptr getelementptr inbounds (%struct._zend_executor_globals, ptr @executor_globals, i64 0, i32 50), align 8
  %19 = icmp ne ptr %18, null
  call void @llvm.assume(i1 %19)
  br label %86

20:                                               ; preds = %2
  %21 = load ptr, ptr %3, align 8
  %22 = call i32 @xmlValidateName(ptr noundef %21, i32 noundef 0) #8
  %.not = icmp eq i32 %22, 0
  br i1 %.not, label %26, label %23

23:                                               ; preds = %20
  call void @php_dom_throw_error(i32 noundef 5, i32 noundef 1) #8
  %24 = load ptr, ptr getelementptr inbounds (%struct._zend_executor_globals, ptr @executor_globals, i64 0, i32 50), align 8
  %25 = icmp ne ptr %24, null
  call void @llvm.assume(i1 %25)
  br label %86

26:                                               ; preds = %20
  %27 = load i64, ptr %11, align 8
  %.not22 = icmp eq i64 %27, 0
  %28 = load ptr, ptr %3, align 8
  br i1 %.not22, label %58, label %29

29:                                               ; preds = %26
  %30 = trunc i64 %27 to i32
  %31 = load i64, ptr %9, align 8
  %32 = trunc i64 %31 to i32
  %33 = call i32 @dom_check_qname(ptr noundef %28, ptr noundef nonnull %6, ptr noundef nonnull %7, i32 noundef %30, i32 noundef %32) #8
  store i32 %33, ptr %8, align 4
  %34 = icmp eq i32 %33, 0
  br i1 %34, label %35, label %44

35:                                               ; preds = %29
  %36 = load ptr, ptr %6, align 8
  %37 = call ptr @xmlNewNode(ptr noundef null, ptr noundef %36) #8
  %38 = icmp ne ptr %37, null
  %39 = load ptr, ptr %5, align 8
  %40 = icmp ne ptr %39, null
  %or.cond = select i1 %38, i1 %40, i1 false
  br i1 %or.cond, label %41, label %44

41:                                               ; preds = %35
  %42 = load ptr, ptr %7, align 8
  %43 = call ptr @dom_get_ns(ptr noundef nonnull %37, ptr noundef nonnull %39, ptr noundef nonnull %8, ptr noundef %42) #8
  call void @xmlSetNs(ptr noundef nonnull %37, ptr noundef %43) #8
  br label %44

44:                                               ; preds = %35, %41, %29
  %.0 = phi ptr [ %37, %41 ], [ %37, %35 ], [ null, %29 ]
  %45 = load ptr, ptr @xmlFree, align 8
  %46 = load ptr, ptr %6, align 8
  call void %45(ptr noundef %46) #8
  %47 = load ptr, ptr %7, align 8
  %.not24 = icmp eq ptr %47, null
  br i1 %.not24, label %50, label %48

48:                                               ; preds = %44
  %49 = load ptr, ptr @xmlFree, align 8
  call void %49(ptr noundef nonnull %47) #8
  br label %50

50:                                               ; preds = %48, %44
  %51 = load i32, ptr %8, align 4
  %.not25 = icmp eq i32 %51, 0
  br i1 %.not25, label %70, label %52

52:                                               ; preds = %50
  %.not29 = icmp eq ptr %.0, null
  br i1 %.not29, label %54, label %53

53:                                               ; preds = %52
  call void @xmlFreeNode(ptr noundef nonnull %.0) #8
  %.pre = load i32, ptr %8, align 4
  br label %54

54:                                               ; preds = %53, %52
  %55 = phi i32 [ %.pre, %53 ], [ %51, %52 ]
  call void @php_dom_throw_error(i32 noundef %55, i32 noundef 1) #8
  %56 = load ptr, ptr getelementptr inbounds (%struct._zend_executor_globals, ptr @executor_globals, i64 0, i32 50), align 8
  %57 = icmp ne ptr %56, null
  call void @llvm.assume(i1 %57)
  br label %86

58:                                               ; preds = %26
  %59 = call ptr @xmlSplitQName2(ptr noundef %28, ptr noundef nonnull %7) #8
  store ptr %59, ptr %6, align 8
  %60 = load ptr, ptr %7, align 8
  %.not23 = icmp eq ptr %60, null
  br i1 %.not23, label %67, label %61

61:                                               ; preds = %58
  %62 = load ptr, ptr @xmlFree, align 8
  call void %62(ptr noundef %59) #8
  %63 = load ptr, ptr @xmlFree, align 8
  %64 = load ptr, ptr %7, align 8
  call void %63(ptr noundef %64) #8
  call void @php_dom_throw_error(i32 noundef 14, i32 noundef 1) #8
  %65 = load ptr, ptr getelementptr inbounds (%struct._zend_executor_globals, ptr @executor_globals, i64 0, i32 50), align 8
  %66 = icmp ne ptr %65, null
  call void @llvm.assume(i1 %66)
  br label %86

67:                                               ; preds = %58
  %68 = load ptr, ptr %3, align 8
  %69 = call ptr @xmlNewNode(ptr noundef null, ptr noundef %68) #8
  br label %70

70:                                               ; preds = %50, %67
  %.1 = phi ptr [ %.0, %50 ], [ %69, %67 ]
  %.not26 = icmp eq ptr %.1, null
  br i1 %.not26, label %71, label %74

71:                                               ; preds = %70
  call void @php_dom_throw_error(i32 noundef 11, i32 noundef 1) #8
  %72 = load ptr, ptr getelementptr inbounds (%struct._zend_executor_globals, ptr @executor_globals, i64 0, i32 50), align 8
  %73 = icmp ne ptr %72, null
  call void @llvm.assume(i1 %73)
  br label %86

74:                                               ; preds = %70
  %75 = load i64, ptr %10, align 8
  %.not27 = icmp eq i64 %75, 0
  br i1 %.not27, label %79, label %76

76:                                               ; preds = %74
  %77 = load ptr, ptr %4, align 8
  %78 = trunc i64 %75 to i32
  call void @xmlNodeSetContentLen(ptr noundef nonnull %.1, ptr noundef %77, i32 noundef %78) #8
  br label %79

79:                                               ; preds = %76, %74
  %80 = load ptr, ptr %12, align 8
  %81 = getelementptr inbounds i8, ptr %80, i64 -24
  %82 = call ptr @dom_object_get_node(ptr noundef nonnull %81) #8
  %.not28 = icmp eq ptr %82, null
  br i1 %.not28, label %84, label %83

83:                                               ; preds = %79
  call void @php_libxml_node_decrement_resource(ptr noundef nonnull %81) #8
  br label %84

84:                                               ; preds = %83, %79
  %85 = call i32 @php_libxml_increment_node_ptr(ptr noundef nonnull %81, ptr noundef nonnull %.1, ptr noundef nonnull %81) #8
  br label %86

86:                                               ; preds = %84, %71, %61, %54, %23, %17
  ret void
}